target datalayout = "e-m:e-p270:32:32-p271:32:32-p272:64:64-i64:64-i128:128-f80:128-n8:16:32:64-S128"
target triple = "x86_64-pc-linux-gnu"

%struct.redisServer = type { i32, i64, ptr, ptr, ptr, i32, i32, i32, i32, i32, ptr, ptr, ptr, ptr, ptr, i32, i32, i32, i32, i64, i32, i32, i32, i32, ptr, i32, i32, [41 x i8], i32, i64, i32, i32, i32, ptr, ptr, i32, i32, i64, ptr, ptr, ptr, ptr, [2 x i32], i32, i32, i32, i32, i32, i32, [16 x ptr], i32, ptr, ptr, i32, [8 x %struct.connListener], i32, %struct.connListener, ptr, ptr, ptr, ptr, ptr, ptr, ptr, ptr, ptr, ptr, i32, ptr, i32, ptr, [3 x %struct.pause_event], [256 x i8], ptr, i64, i32, i32, [128 x i32], i32, i32, i64, i32, i32, i32, i32, i32, i64, i64, i64, i64, i64, i64, i64, i64, i64, i64, double, i64, i64, i64, i64, i64, i64, i64, i64, i64, i64, i64, i64, i64, i64, i64, i64, i64, i64, i64, i64, i64, double, i64, i64, i64, i64, i64, ptr, i64, i64, i64, %struct.malloc_stats, i64, i64, i64, i64, i64, i64, i64, i64, i64, i64, i64, i64, double, [4 x i64], i64, i64, i64, i64, [128 x i64], [128 x i64], i64, i64, [7 x %struct.anon], i64, i64, i64, i64, i64, i64, [4 x %struct.durationStats], i32, i32, i32, i32, i32, i32, i32, i32, i32, i32, i32, i32, i64, i32, i32, i32, i32, i64, i64, i32, i32, i32, i32, i32, ptr, [3 x %struct.clientBufferLimitsConfig], i32, i32, i32, ptr, i32, i32, i32, i32, i32, i32, ptr, ptr, i32, i32, i64, i64, i64, i64, i64, i32, i32, ptr, i32, i32, i64, i64, i64, i64, i64, i32, i32, i64, i32, i32, i32, i32, i32, i32, i32, i32, ptr, i32, i64, i64, i64, i64, i32, ptr, i32, ptr, i32, i32, i32, i64, i64, i64, i64, i32, i32, i32, i32, i32, i32, ptr, i32, i32, ptr, i32, i32, i32, [2 x i32], i32, %struct.redisOpArray, i32, ptr, i32, ptr, i32, i32, i32, i32, i32, i32, i32, [41 x i8], [41 x i8], i64, i64, i64, i64, i32, i32, ptr, i64, i64, %struct.replDataBuf, i64, i64, i32, i32, i32, i32, i32, i32, i32, i32, i32, i64, ptr, i64, ptr, ptr, ptr, i32, i32, ptr, ptr, i32, i32, i32, i64, i64, i64, i64, ptr, ptr, i32, ptr, i64, i32, i32, i32, i64, i32, i32, i32, i32, ptr, i32, i32, [41 x i8], i64, i32, ptr, i32, i32, i64, i64, i32, i32, i32, i32, i32, i64, [3 x i32], i32, i32, i32, [10 x i32], ptr, ptr, i32, i64, ptr, ptr, i32, i32, i32, i32, i64, i64, i64, i64, i64, i64, i64, i64, i64, i64, i32, i32, i64, i64, i32, i64, i64, i64, i64, i64, ptr, ptr, i32, ptr, i32, i32, i32, i32, i64, i64, ptr, ptr, i32, i32, i32, i32, i32, ptr, ptr, ptr, i32, i32, i32, i32, i32, i32, i32, i64, i32, i32, i64, i32, i32, i32, i32, i32, i32, i32, i64, ptr, ptr, i64, ptr, i32, %struct.aclInfo, i32, i64, i32, i32, i32, %struct.redisTLSContextConfig, ptr, ptr, ptr, ptr, ptr, i64, i32, ptr, i32, i32, i32, i64, i32, ptr }
%struct.connListener = type { [16 x i32], i32, ptr, i32, i32, ptr, ptr }
%struct.pause_event = type { i32, i64 }
%struct.malloc_stats = type { i64, i64, i64, i64, i64, i64, i64, i64, i64, i64, i64 }
%struct.anon = type { i64, i64, [16 x i64], i32 }
%struct.durationStats = type { i64, i64, i64 }
%struct.clientBufferLimitsConfig = type { i64, i64, i64 }
%struct.redisOpArray = type { ptr, i32, i32 }
%struct.replDataBuf = type { ptr, i64, i64, i64, i64 }
%struct.aclInfo = type { i64, i64, i64, i64 }
%struct.redisTLSContextConfig = type { ptr, ptr, ptr, ptr, ptr, ptr, ptr, ptr, ptr, ptr, ptr, ptr, i32, i32, i32, i32 }
%struct.sdshdr8 = type { i8, i8, i8, [0 x i8] }
%struct.sdshdr16 = type <{ i16, i16, i8, [0 x i8] }>
%struct.sdshdr32 = type <{ i32, i32, i8, [0 x i8] }>
%struct.sdshdr64 = type <{ i64, i64, i8, [0 x i8] }>

@.str.1 = private unnamed_addr constant [6 x i8] c"aof.c\00", align 1
@server = external global %struct.redisServer, align 8
@.str.88 = private unnamed_addr constant [9 x i8] c"#TS:%I\0D\0A\00", align 1
@.str.89 = private unnamed_addr constant [42 x i8] c"sdslen(ts) <= AOF_ANNOTATION_LINE_MAX_LEN\00", align 1
@.str.90 = private unnamed_addr constant [55 x i8] c"dictid == -1 || (dictid >= 0 && dictid < server.dbnum)\00", align 1
@.str.91 = private unnamed_addr constant [3 x i8] c"%d\00", align 1
@.str.92 = private unnamed_addr constant [27 x i8] c"*2\0D\0A$6\0D\0ASELECT\0D\0A$%lu\0D\0A%s\0D\0A\00", align 1

; Function Attrs: inlinehint nounwind uwtable
define internal i64 @sdslen(ptr noundef %0) #6 {
  %2 = alloca i64, align 8
  %3 = alloca ptr, align 8
  %4 = alloca i8, align 1
  %5 = alloca i32, align 4
  store ptr %0, ptr %3, align 8, !tbaa !18
  call void @llvm.lifetime.start.p0(i64 1, ptr %4) #12
  %6 = load ptr, ptr %3, align 8, !tbaa !18
  %7 = getelementptr inbounds i8, ptr %6, i64 -1
  %8 = load i8, ptr %7, align 1, !tbaa !19
  store i8 %8, ptr %4, align 1, !tbaa !19
  %9 = load i8, ptr %4, align 1, !tbaa !19
  %10 = zext i8 %9 to i32
  %11 = and i32 %10, 7
  switch i32 %11, label %40 [
    i32 0, label %12
    i32 1, label %17
    i32 2, label %23
    i32 3, label %29
    i32 4, label %35
  ]

12:                                               ; preds = %1
  %13 = load i8, ptr %4, align 1, !tbaa !19
  %14 = zext i8 %13 to i32
  %15 = ashr i32 %14, 3
  %16 = sext i32 %15 to i64
  store i64 %16, ptr %2, align 8
  store i32 1, ptr %5, align 4
  br label %41

17:                                               ; preds = %1
  %18 = load ptr, ptr %3, align 8, !tbaa !18
  %19 = getelementptr inbounds i8, ptr %18, i64 -3
  %20 = getelementptr inbounds nuw %struct.sdshdr8, ptr %19, i32 0, i32 0
  %21 = load i8, ptr %20, align 1, !tbaa !19
  %22 = zext i8 %21 to i64
  store i64 %22, ptr %2, align 8
  store i32 1, ptr %5, align 4
  br label %41

23:                                               ; preds = %1
  %24 = load ptr, ptr %3, align 8, !tbaa !18
  %25 = getelementptr inbounds i8, ptr %24, i64 -5
  %26 = getelementptr inbounds nuw %struct.sdshdr16, ptr %25, i32 0, i32 0
  %27 = load i16, ptr %26, align 1, !tbaa !20
  %28 = zext i16 %27 to i64
  store i64 %28, ptr %2, align 8
  store i32 1, ptr %5, align 4
  br label %41

29:                                               ; preds = %1
  %30 = load ptr, ptr %3, align 8, !tbaa !18
  %31 = getelementptr inbounds i8, ptr %30, i64 -9
  %32 = getelementptr inbounds nuw %struct.sdshdr32, ptr %31, i32 0, i32 0
  %33 = load i32, ptr %32, align 1, !tbaa !22
  %34 = zext i32 %33 to i64
  store i64 %34, ptr %2, align 8
  store i32 1, ptr %5, align 4
  br label %41

35:                                               ; preds = %1
  %36 = load ptr, ptr %3, align 8, !tbaa !18
  %37 = getelementptr inbounds i8, ptr %36, i64 -17
  %38 = getelementptr inbounds nuw %struct.sdshdr64, ptr %37, i32 0, i32 0
  %39 = load i64, ptr %38, align 1, !tbaa !23
  store i64 %39, ptr %2, align 8
  store i32 1, ptr %5, align 4
  br label %41

40:                                               ; preds = %1
  store i64 0, ptr %2, align 8
  store i32 1, ptr %5, align 4
  br label %41

41:                                               ; preds = %40, %35, %29, %23, %17, %12
  call void @llvm.lifetime.end.p0(i64 1, ptr %4) #12
  %42 = load i64, ptr %2, align 8
  ret i64 %42
}

; Function Attrs: nounwind uwtable
define dso_local ptr @genAofTimestampAnnotationIfNeeded(i32 noundef %0) #0 {
  %2 = alloca i32, align 4
  %3 = alloca ptr, align 8
  store i32 %0, ptr %2, align 4, !tbaa !22
  call void @llvm.lifetime.start.p0(i64 8, ptr %3) #12
  store ptr null, ptr %3, align 8, !tbaa !18
  %4 = load i32, ptr %2, align 4, !tbaa !22
  %5 = icmp ne i32 %4, 0
  br i1 %5, label %10, label %6

6:                                                ; preds = %1
  %7 = load i64, ptr getelementptr inbounds nuw (%struct.redisServer, ptr @server, i32 0, i32 213), align 8, !tbaa !137
  %8 = load atomic i64, ptr getelementptr inbounds nuw (%struct.redisServer, ptr @server, i32 0, i32 366) seq_cst, align 8, !tbaa !98
  %9 = icmp slt i64 %7, %8
  br i1 %9, label %10, label %35

10:                                               ; preds = %6, %1
  %11 = load i32, ptr %2, align 4, !tbaa !22
  %12 = icmp ne i32 %11, 0
  br i1 %12, label %13, label %15

13:                                               ; preds = %10
  %14 = call i64 @time(ptr noundef null) #12
  br label %17

15:                                               ; preds = %10
  %16 = load atomic i64, ptr getelementptr inbounds nuw (%struct.redisServer, ptr @server, i32 0, i32 366) seq_cst, align 8, !tbaa !98
  br label %17

17:                                               ; preds = %15, %13
  %18 = phi i64 [ %14, %13 ], [ %16, %15 ]
  store i64 %18, ptr getelementptr inbounds nuw (%struct.redisServer, ptr @server, i32 0, i32 213), align 8, !tbaa !137
  %19 = call ptr @sdsempty()
  %20 = load i64, ptr getelementptr inbounds nuw (%struct.redisServer, ptr @server, i32 0, i32 213), align 8, !tbaa !137
  %21 = call ptr (ptr, ptr, ...) @sdscatfmt(ptr noundef %19, ptr noundef @.str.88, i64 noundef %20)
  store ptr %21, ptr %3, align 8, !tbaa !18
  %22 = load ptr, ptr %3, align 8, !tbaa !18
  %23 = call i64 @sdslen(ptr noundef %22)
  %24 = icmp ule i64 %23, 1024
  %25 = xor i1 %24, true
  %26 = xor i1 %25, true
  %27 = zext i1 %26 to i32
  %28 = sext i32 %27 to i64
  %29 = call i64 @llvm.expect.i64(i64 %28, i64 1)
  %30 = icmp ne i64 %29, 0
  br i1 %30, label %31, label %32

31:                                               ; preds = %17
  br label %34

32:                                               ; preds = %17
  call void @_serverAssert(ptr noundef @.str.89, ptr noundef @.str.1, i32 noundef 1391)
  call void @abort() #14
  unreachable

33:                                               ; No predecessors!
  br label %34

34:                                               ; preds = %33, %31
  br label %35

35:                                               ; preds = %34, %6
  %36 = load ptr, ptr %3, align 8, !tbaa !18
  call void @llvm.lifetime.end.p0(i64 8, ptr %3) #12
  ret ptr %36
}

; Function Attrs: nounwind uwtable
define dso_local void @feedAppendOnlyFile(i32 noundef %0, ptr noundef %1, i32 noundef %2) #0 {
  %4 = alloca i32, align 4
  %5 = alloca ptr, align 8
  %6 = alloca i32, align 4
  %7 = alloca ptr, align 8
  %8 = alloca ptr, align 8
  %9 = alloca [64 x i8], align 16
  store i32 %0, ptr %4, align 4, !tbaa !22
  store ptr %1, ptr %5, align 8, !tbaa !130
  store i32 %2, ptr %6, align 4, !tbaa !22
  call void @llvm.lifetime.start.p0(i64 8, ptr %7) #12
  %10 = call ptr @sdsempty()
  store ptr %10, ptr %7, align 8, !tbaa !18
  %11 = load i32, ptr %4, align 4, !tbaa !22
  %12 = icmp eq i32 %11, -1
  br i1 %12, label %22, label %13

13:                                               ; preds = %3
  %14 = load i32, ptr %4, align 4, !tbaa !22
  %15 = icmp sge i32 %14, 0
  br i1 %15, label %16, label %20

16:                                               ; preds = %13
  %17 = load i32, ptr %4, align 4, !tbaa !22
  %18 = load i32, ptr getelementptr inbounds nuw (%struct.redisServer, ptr @server, i32 0, i32 178), align 8, !tbaa !138
  %19 = icmp slt i32 %17, %18
  br label %20

20:                                               ; preds = %16, %13
  %21 = phi i1 [ false, %13 ], [ %19, %16 ]
  br label %22

22:                                               ; preds = %20, %3
  %23 = phi i1 [ true, %3 ], [ %21, %20 ]
  %24 = xor i1 %23, true
  %25 = xor i1 %24, true
  %26 = zext i1 %25 to i32
  %27 = sext i32 %26 to i64
  %28 = call i64 @llvm.expect.i64(i64 %27, i64 1)
  %29 = icmp ne i64 %28, 0
  br i1 %29, label %30, label %31

30:                                               ; preds = %22
  br label %33

31:                                               ; preds = %22
  call void @_serverAssert(ptr noundef @.str.90, ptr noundef @.str.1, i32 noundef 1407)
  call void @abort() #14
  unreachable

32:                                               ; No predecessors!
  br label %33

33:                                               ; preds = %32, %30
  %34 = load i32, ptr getelementptr inbounds nuw (%struct.redisServer, ptr @server, i32 0, i32 214), align 8, !tbaa !139
  %35 = icmp ne i32 %34, 0
  br i1 %35, label %36, label %46

36:                                               ; preds = %33
  call void @llvm.lifetime.start.p0(i64 8, ptr %8) #12
  %37 = call ptr @genAofTimestampAnnotationIfNeeded(i32 noundef 0)
  store ptr %37, ptr %8, align 8, !tbaa !18
  %38 = load ptr, ptr %8, align 8, !tbaa !18
  %39 = icmp ne ptr %38, null
  br i1 %39, label %40, label %45

40:                                               ; preds = %36
  %41 = load ptr, ptr %7, align 8, !tbaa !18
  %42 = load ptr, ptr %8, align 8, !tbaa !18
  %43 = call ptr @sdscatsds(ptr noundef %41, ptr noundef %42)
  store ptr %43, ptr %7, align 8, !tbaa !18
  %44 = load ptr, ptr %8, align 8, !tbaa !18
  call void @sdsfree(ptr noundef %44)
  br label %45

45:                                               ; preds = %40, %36
  call void @llvm.lifetime.end.p0(i64 8, ptr %8) #12
  br label %46

46:                                               ; preds = %45, %33
  %47 = load i32, ptr %4, align 4, !tbaa !22
  %48 = icmp ne i32 %47, -1
  br i1 %48, label %49, label %63

49:                                               ; preds = %46
  %50 = load i32, ptr %4, align 4, !tbaa !22
  %51 = load i32, ptr getelementptr inbounds nuw (%struct.redisServer, ptr @server, i32 0, i32 208), align 4, !tbaa !103
  %52 = icmp ne i32 %50, %51
  br i1 %52, label %53, label %63

53:                                               ; preds = %49
  call void @llvm.lifetime.start.p0(i64 64, ptr %9) #12
  %54 = getelementptr inbounds [64 x i8], ptr %9, i64 0, i64 0
  %55 = load i32, ptr %4, align 4, !tbaa !22
  %56 = call i32 (ptr, i64, ptr, ...) @snprintf(ptr noundef %54, i64 noundef 64, ptr noundef @.str.91, i32 noundef %55) #12
  %57 = load ptr, ptr %7, align 8, !tbaa !18
  %58 = getelementptr inbounds [64 x i8], ptr %9, i64 0, i64 0
  %59 = call i64 @strlen(ptr noundef %58) #16
  %60 = getelementptr inbounds [64 x i8], ptr %9, i64 0, i64 0
  %61 = call ptr (ptr, ptr, ...) @sdscatprintf(ptr noundef %57, ptr noundef @.str.92, i64 noundef %59, ptr noundef %60)
  store ptr %61, ptr %7, align 8, !tbaa !18
  %62 = load i32, ptr %4, align 4, !tbaa !22
  store i32 %62, ptr getelementptr inbounds nuw (%struct.redisServer, ptr @server, i32 0, i32 208), align 4, !tbaa !103
  call void @llvm.lifetime.end.p0(i64 64, ptr %9) #12
  br label %63

63:                                               ; preds = %53, %49, %46
  %64 = load ptr, ptr %7, align 8, !tbaa !18
  %65 = load i32, ptr %6, align 4, !tbaa !22
  %66 = load ptr, ptr %5, align 8, !tbaa !130
  %67 = call ptr @catAppendOnlyGenericCommand(ptr noundef %64, i32 noundef %65, ptr noundef %66)
  store ptr %67, ptr %7, align 8, !tbaa !18
  %68 = load i32, ptr getelementptr inbounds nuw (%struct.redisServer, ptr @server, i32 0, i32 193), align 8, !tbaa !84
  %69 = icmp eq i32 %68, 1
  br i1 %69, label %76, label %70

70:                                               ; preds = %63
  %71 = load i32, ptr getelementptr inbounds nuw (%struct.redisServer, ptr @server, i32 0, i32 193), align 8, !tbaa !84
  %72 = icmp eq i32 %71, 2
  br i1 %72, label %73, label %82

73:                                               ; preds = %70
  %74 = load i32, ptr getelementptr inbounds nuw (%struct.redisServer, ptr @server, i32 0, i32 44), align 4, !tbaa !99
  %75 = icmp eq i32 %74, 2
  br i1 %75, label %76, label %82

76:                                               ; preds = %73, %63
  %77 = load ptr, ptr getelementptr inbounds nuw (%struct.redisServer, ptr @server, i32 0, i32 206), align 8, !tbaa !106
  %78 = load ptr, ptr %7, align 8, !tbaa !18
  %79 = load ptr, ptr %7, align 8, !tbaa !18
  %80 = call i64 @sdslen(ptr noundef %79)
  %81 = call ptr @sdscatlen(ptr noundef %77, ptr noundef %78, i64 noundef %80)
  store ptr %81, ptr getelementptr inbounds nuw (%struct.redisServer, ptr @server, i32 0, i32 206), align 8, !tbaa !106
  br label %82

82:                                               ; preds = %76, %73, %70
  %83 = load ptr, ptr %7, align 8, !tbaa !18
  call void @sdsfree(ptr noundef %83)
  call void @llvm.lifetime.end.p0(i64 8, ptr %7) #12
  ret void
}