; Function Attrs: nounwind uwtable
define dso_local void @feedAppendOnlyFile(i32 noundef %0, ptr noundef readonly captures(none) %1, i32 noundef %2) local_unnamed_addr #0 {
  %4 = alloca [64 x i8], align 16
  %5 = tail call ptr @sdsempty() #20
  %6 = icmp eq i32 %0, -1
  br i1 %6, label %.critedge, label %7

7:                                                ; preds = %3
  %8 = icmp sgt i32 %0, -1
  %9 = load i32, ptr getelementptr inbounds nuw (i8, ptr @server, i64 6376), align 8
  %10 = icmp slt i32 %0, %9
  %11 = select i1 %8, i1 %10, i1 false
  br i1 %11, label %.critedge, label %12, !prof !71

12:                                               ; preds = %7
  tail call void @_serverAssert(ptr noundef nonnull @.str.90, ptr noundef nonnull @.str.1, i32 noundef 1407) #20
  tail call void @abort() #21
  unreachable

.critedge:                                        ; preds = %3, %7
  %13 = load i32, ptr getelementptr inbounds nuw (i8, ptr @server, i64 6656), align 8, !tbaa !123
  %.not = icmp eq i32 %13, 0
  br i1 %.not, label %genAofTimestampAnnotationIfNeeded.exit, label %14

14:                                               ; preds = %.critedge
  %15 = load i64, ptr getelementptr inbounds nuw (i8, ptr @server, i64 6648), align 8, !tbaa !121
  %16 = load atomic i64, ptr getelementptr inbounds nuw (i8, ptr @server, i64 7784) seq_cst, align 8, !tbaa !92
  %17 = icmp slt i64 %15, %16
  br i1 %17, label %18, label %genAofTimestampAnnotationIfNeeded.exit

18:                                               ; preds = %14
  %19 = load atomic i64, ptr getelementptr inbounds nuw (i8, ptr @server, i64 7784) seq_cst, align 8, !tbaa !92
  store i64 %19, ptr getelementptr inbounds nuw (i8, ptr @server, i64 6648), align 8, !tbaa !121
  %20 = tail call ptr @sdsempty() #20
  %21 = load i64, ptr getelementptr inbounds nuw (i8, ptr @server, i64 6648), align 8, !tbaa !121
  %22 = tail call ptr (ptr, ptr, ...) @sdscatfmt(ptr noundef %20, ptr noundef nonnull @.str.88, i64 noundef %21) #20
  %23 = getelementptr inbounds i8, ptr %22, i64 -1
  %24 = load i8, ptr %23, align 1, !tbaa !18
  %25 = and i8 %24, 7
  switch i8 %25, label %39 [
    i8 4, label %34
    i8 3, label %30
    i8 2, label %26
  ]

26:                                               ; preds = %18
  %27 = getelementptr inbounds i8, ptr %22, i64 -5
  %28 = load i16, ptr %27, align 1, !tbaa !19
  %29 = zext i16 %28 to i64
  br label %sdslen.exit.i

30:                                               ; preds = %18
  %31 = getelementptr inbounds i8, ptr %22, i64 -9
  %32 = load i32, ptr %31, align 1, !tbaa !21
  %33 = zext i32 %32 to i64
  br label %sdslen.exit.i

34:                                               ; preds = %18
  %35 = getelementptr inbounds i8, ptr %22, i64 -17
  %36 = load i64, ptr %35, align 1, !tbaa !22
  br label %sdslen.exit.i

sdslen.exit.i:                                    ; preds = %34, %30, %26
  %.0.i.i = phi i64 [ %36, %34 ], [ %33, %30 ], [ %29, %26 ]
  %37 = icmp ult i64 %.0.i.i, 1025
  br i1 %37, label %39, label %38, !prof !122

38:                                               ; preds = %sdslen.exit.i
  tail call void @_serverAssert(ptr noundef nonnull @.str.89, ptr noundef nonnull @.str.1, i32 noundef 1391) #20
  tail call void @abort() #21
  unreachable

39:                                               ; preds = %sdslen.exit.i, %18
  %40 = tail call ptr @sdscatsds(ptr noundef %5, ptr noundef nonnull %22) #20
  tail call void @sdsfree(ptr noundef nonnull %22) #20
  br label %genAofTimestampAnnotationIfNeeded.exit

genAofTimestampAnnotationIfNeeded.exit:           ; preds = %14, %39, %.critedge
  %.0 = phi ptr [ %5, %.critedge ], [ %40, %39 ], [ %5, %14 ]
  %41 = load i32, ptr getelementptr inbounds nuw (i8, ptr @server, i64 6612), align 4
  %.not24 = icmp eq i32 %0, %41
  %or.cond25 = select i1 %6, i1 true, i1 %.not24
  br i1 %or.cond25, label %46, label %42

42:                                               ; preds = %genAofTimestampAnnotationIfNeeded.exit
  call void @llvm.lifetime.start.p0(i64 64, ptr nonnull %4) #20
  %43 = call i32 (ptr, i64, ptr, ...) @snprintf(ptr noundef nonnull dereferenceable(1) %4, i64 noundef 64, ptr noundef nonnull @.str.91, i32 noundef %0) #20
  %44 = call i64 @strlen(ptr noundef nonnull dereferenceable(1) %4) #24
  %45 = call ptr (ptr, ptr, ...) @sdscatprintf(ptr noundef %.0, ptr noundef nonnull @.str.92, i64 noundef %44, ptr noundef nonnull %4) #20
  store i32 %0, ptr getelementptr inbounds nuw (i8, ptr @server, i64 6612), align 4, !tbaa !97
  call void @llvm.lifetime.end.p0(i64 64, ptr nonnull %4) #20
  br label %46

46:                                               ; preds = %42, %genAofTimestampAnnotationIfNeeded.exit
  %.2 = phi ptr [ %45, %42 ], [ %.0, %genAofTimestampAnnotationIfNeeded.exit ]
  %47 = call ptr @catAppendOnlyGenericCommand(ptr noundef %.2, i32 noundef %2, ptr noundef %1)
  %48 = load i32, ptr getelementptr inbounds nuw (i8, ptr @server, i64 6520), align 8, !tbaa !79
  %49 = icmp eq i32 %48, 1
  br i1 %49, label %54, label %50

50:                                               ; preds = %46
  %51 = icmp eq i32 %48, 2
  %52 = load i32, ptr getelementptr inbounds nuw (i8, ptr @server, i64 308), align 4
  %53 = icmp eq i32 %52, 2
  %or.cond = select i1 %51, i1 %53, i1 false
  br i1 %or.cond, label %54, label %79

54:                                               ; preds = %50, %46
  %55 = load ptr, ptr getelementptr inbounds nuw (i8, ptr @server, i64 6600), align 8, !tbaa !100
  %56 = getelementptr inbounds i8, ptr %47, i64 -1
  %57 = load i8, ptr %56, align 1, !tbaa !18
  %58 = zext i8 %57 to i32
  %59 = and i32 %58, 7
  switch i32 %59, label %sdslen.exit [
    i32 0, label %60
    i32 1, label %63
    i32 2, label %67
    i32 3, label %71
    i32 4, label %75
  ]

60:                                               ; preds = %54
  %61 = lshr i32 %58, 3
  %62 = zext nneg i32 %61 to i64
  br label %sdslen.exit

63:                                               ; preds = %54
  %64 = getelementptr inbounds i8, ptr %47, i64 -3
  %65 = load i8, ptr %64, align 1, !tbaa !18
  %66 = zext i8 %65 to i64
  br label %sdslen.exit

67:                                               ; preds = %54
  %68 = getelementptr inbounds i8, ptr %47, i64 -5
  %69 = load i16, ptr %68, align 1, !tbaa !19
  %70 = zext i16 %69 to i64
  br label %sdslen.exit

71:                                               ; preds = %54
  %72 = getelementptr inbounds i8, ptr %47, i64 -9
  %73 = load i32, ptr %72, align 1, !tbaa !21
  %74 = zext i32 %73 to i64
  br label %sdslen.exit

75:                                               ; preds = %54
  %76 = getelementptr inbounds i8, ptr %47, i64 -17
  %77 = load i64, ptr %76, align 1, !tbaa !22
  br label %sdslen.exit

sdslen.exit:                                      ; preds = %54, %60, %63, %67, %71, %75
  %.0.i26 = phi i64 [ %77, %75 ], [ %74, %71 ], [ %70, %67 ], [ %66, %63 ], [ %62, %60 ], [ 0, %54 ]
  %78 = call ptr @sdscatlen(ptr noundef %55, ptr noundef nonnull %47, i64 noundef %.0.i26) #20
  store ptr %78, ptr getelementptr inbounds nuw (i8, ptr @server, i64 6600), align 8, !tbaa !100
  br label %79

79:                                               ; preds = %sdslen.exit, %50
  call void @sdsfree(ptr noundef %47) #20
  ret void
}